Certificate:
    Data:
        Version: 1 (0x0)
        Serial Number: 1 (0x1)
        Signature Algorithm: md5WithRSAEncryption
        Issuer: O=Npstats/emailAddress=npstats@noaaport.net, L=San Juan, ST=Puerto Rico, C=US, CN=stats.noaaport.net
        Validity
            Not Before: Jul  9 13:58:52 2009 GMT
            Not After : Jul  9 13:58:52 2010 GMT
        Subject: C=US, ST=Puerto Rico, O=Npstats, CN=stats.noaaport.net
        Subject Public Key Info:
            Public Key Algorithm: rsaEncryption
            RSA Public Key: (1024 bit)
                Modulus (1024 bit):
                    00:d6:6f:04:a2:cb:f1:87:dd:8f:e5:61:ca:59:94:
                    0e:15:4c:24:1b:b5:5a:ee:20:80:b3:76:7d:6c:6a:
                    de:85:c1:66:f9:90:b2:0a:83:88:f6:0d:dc:68:73:
                    d6:fb:a8:f8:76:e8:b0:37:0c:6a:82:c4:36:a7:4d:
                    4f:81:20:78:a1:40:6e:c0:50:a5:cd:69:12:7e:07:
                    1b:fb:fd:0e:11:c7:f9:bb:94:73:91:03:d3:73:b8:
                    4f:87:42:7f:85:fc:11:ec:c1:1c:ff:eb:88:5e:99:
                    0c:28:23:89:64:89:74:fb:8b:9f:63:b0:fa:15:da:
                    bd:55:bd:dd:80:cd:7e:7e:2f
                Exponent: 65537 (0x10001)
    Signature Algorithm: md5WithRSAEncryption
        ae:65:f1:5c:e8:c8:d2:39:18:3c:10:03:f8:af:39:46:83:82:
        a0:b3:97:11:d4:cc:5a:6a:18:50:b5:e9:20:af:f3:fa:65:18:
        65:00:35:7f:26:bf:85:4c:9e:6c:22:c6:16:6a:49:8f:3b:f8:
        c4:25:3b:c0:ec:4d:68:ea:e1:28:41:92:b6:87:aa:53:9f:9e:
        b4:7b:ff:8e:ac:fa:a4:71:d8:28:41:2d:b3:99:9f:26:50:6a:
        98:ba:ed:d6:7a:28:37:0a:e1:15:54:13:7f:75:b0:ce:f5:ce:
        e7:d3:91:46:47:35:76:39:44:66:9c:cb:c5:26:4d:d6:21:79:
        d9:4f
-----BEGIN CERTIFICATE-----
MIICTDCCAbUCAQEwDQYJKoZIhvcNAQEEBQAwgYoxEDAOBgNVBAoTB05wc3RhdHMx
IzAhBgkqhkiG9w0BCQEWFG5wc3RhdHNAbm9hYXBvcnQubmV0MREwDwYDVQQHEwhT
YW4gSnVhbjEUMBIGA1UECBMLUHVlcnRvIFJpY28xCzAJBgNVBAYTAlVTMRswGQYD
VQQDExJzdGF0cy5ub2FhcG9ydC5uZXQwHhcNMDkwNzA5MTM1ODUyWhcNMTAwNzA5
MTM1ODUyWjBSMQswCQYDVQQGEwJVUzEUMBIGA1UECBMLUHVlcnRvIFJpY28xEDAO
BgNVBAoTB05wc3RhdHMxGzAZBgNVBAMTEnN0YXRzLm5vYWFwb3J0Lm5ldDCBnzAN
BgkqhkiG9w0BAQEFAAOBjQAwgYkCgYEA1m8Eosvxh92P5WHKWZQOFUwkG7Va7iCA
s3Z9bGrehcFm+ZCyCoOI9g3caHPW+6j4duiwNwxqgsQ2p01PgSB4oUBuwFClzWkS
fgcb+/0OEcf5u5RzkQPTc7hPh0J/hfwR7MEc/+uIXpkMKCOJZIl0+4ufY7D6Fdq9
Vb3dgM1+fi8CAwEAATANBgkqhkiG9w0BAQQFAAOBgQCuZfFc6MjSORg8EAP4rzlG
g4Kgs5cR1MxaahhQtekgr/P6ZRhlADV/Jr+FTJ5sIsYWakmPO/jEJTvA7E1o6uEo
QZK2h6pTn560e/+OrPqkcdgoQS2zmZ8mUGqYuu3Weig3CuEVVBN/dbDO9c7n05FG
RzV2OURmnMvFJk3WIXnZTw==
-----END CERTIFICATE-----
